; Function Attrs: mustprogress nounwind uwtable
define hidden noundef i32 @_ZNK10TypeAryPtr4hashEv(ptr nocapture noundef nonnull readonly align 8 dereferenceable(89) %0) unnamed_addr #0 align 2 {
  %2 = getelementptr inbounds i8, ptr %0, i64 80
  %3 = load ptr, ptr %2, align 8
  %4 = getelementptr inbounds i8, ptr %0, i64 48
  %5 = load ptr, ptr %4, align 8
  %.not.i = icmp eq ptr %5, null
  br i1 %.not.i, label %8, label %6

6:                                                ; preds = %1
  %7 = tail call noundef i32 @_ZN8ciObject4hashEv(ptr noundef nonnull align 8 dereferenceable(40) %5) #17
  br label %8

8:                                                ; preds = %6, %1
  %9 = phi i32 [ %7, %6 ], [ 0, %1 ]
  %10 = getelementptr inbounds i8, ptr %0, i64 72
  %11 = load i8, ptr %10, align 8
  %12 = getelementptr inbounds i8, ptr %0, i64 76
  %13 = load i32, ptr %12, align 4
  %14 = getelementptr inbounds i8, ptr %0, i64 40
  %15 = load i32, ptr %14, align 8
  %16 = getelementptr inbounds i8, ptr %0, i64 36
  %17 = load i32, ptr %16, align 4
  %18 = getelementptr inbounds i8, ptr %0, i64 24
  %19 = load ptr, ptr %18, align 8
  %20 = icmp eq ptr %19, null
  br i1 %20, label %_ZNK10TypeOopPtr4hashEv.exit, label %21

21:                                               ; preds = %8
  %22 = load ptr, ptr %19, align 8
  %23 = getelementptr inbounds i8, ptr %22, i64 80
  %24 = load ptr, ptr %23, align 8
  %25 = tail call noundef i32 %24(ptr noundef nonnull align 8 dereferenceable(44) %19) #17
  br label %_ZNK10TypeOopPtr4hashEv.exit

_ZNK10TypeOopPtr4hashEv.exit:                     ; preds = %8, %21
  %.0.i.i.i = phi i32 [ %25, %21 ], [ 0, %8 ]
  %26 = ptrtoint ptr %3 to i64
  %27 = trunc i64 %26 to i32
  %28 = and i8 %11, 1
  %29 = zext nneg i8 %28 to i32
  %30 = getelementptr inbounds i8, ptr %0, i64 32
  %31 = load i32, ptr %30, align 8
  %32 = add i32 %9, %27
  %33 = add i32 %32, %13
  %34 = add i32 %33, %29
  %35 = add i32 %34, %15
  %36 = add i32 %35, %17
  %37 = add i32 %36, %.0.i.i.i
  %38 = add i32 %37, %31
  ret i32 %38
}